target datalayout = "e-m:e-p270:32:32-p271:32:32-p272:64:64-i64:64-i128:128-f80:128-n8:16:32:64-S128"
target triple = "x86_64-pc-linux-gnu"

%struct.H5FD_onion_header_t = type { i8, i32, i32, i64, i64, i64, i32 }

@H5FD_init_g = external global i8, align 1
@H5_libterm_g = external global i8, align 1
@.str.10 = private unnamed_addr constant [5 x i8] c"OHDH\00", align 1

; Function Attrs: nounwind uwtable
define i64 @H5FD__onion_header_encode(ptr noundef %0, ptr noundef %1, ptr noundef %2) #0 {
  %4 = alloca ptr, align 8
  %5 = alloca ptr, align 8
  %6 = alloca ptr, align 8
  %7 = alloca ptr, align 8
  %8 = alloca i64, align 8
  %9 = alloca i64, align 8
  %10 = alloca i64, align 8
  %11 = alloca ptr, align 8
  %12 = alloca i64, align 8
  %13 = alloca i64, align 8
  %14 = alloca ptr, align 8
  %15 = alloca i64, align 8
  %16 = alloca i64, align 8
  %17 = alloca ptr, align 8
  store ptr %0, ptr %4, align 8, !tbaa !3
  store ptr %1, ptr %5, align 8, !tbaa !12
  store ptr %2, ptr %6, align 8, !tbaa !28
  call void @llvm.lifetime.start.p0(i64 8, ptr %7) #7
  %18 = load ptr, ptr %5, align 8, !tbaa !12
  store ptr %18, ptr %7, align 8, !tbaa !12
  call void @llvm.lifetime.start.p0(i64 8, ptr %8) #7
  store i64 0, ptr %8, align 8, !tbaa !10
  %19 = load i8, ptr @H5FD_init_g, align 1, !tbaa !16, !range !18, !noundef !19
  %20 = trunc i8 %19 to i1
  br i1 %20, label %25, label %21

21:                                               ; preds = %3
  %22 = load i8, ptr @H5_libterm_g, align 1, !tbaa !16, !range !18, !noundef !19
  %23 = trunc i8 %22 to i1
  %24 = xor i1 %23, true
  br label %25

25:                                               ; preds = %21, %3
  %26 = phi i1 [ true, %3 ], [ %24, %21 ]
  %27 = xor i1 %26, true
  %28 = xor i1 %27, true
  %29 = zext i1 %28 to i32
  %30 = sext i32 %29 to i64
  %31 = call i64 @llvm.expect.i64(i64 %30, i64 1)
  %32 = icmp ne i64 %31, 0
  br i1 %32, label %33, label %269

33:                                               ; preds = %25
  %34 = load ptr, ptr %7, align 8, !tbaa !12
  call void @llvm.memcpy.p0.p0.i64(ptr align 1 %34, ptr align 1 @.str.10, i64 4, i1 false)
  %35 = load ptr, ptr %7, align 8, !tbaa !12
  %36 = getelementptr inbounds i8, ptr %35, i64 4
  store ptr %36, ptr %7, align 8, !tbaa !12
  %37 = load ptr, ptr %7, align 8, !tbaa !12
  %38 = load ptr, ptr %4, align 8, !tbaa !3
  %39 = getelementptr inbounds nuw %struct.H5FD_onion_header_t, ptr %38, i32 0, i32 0
  call void @llvm.memcpy.p0.p0.i64(ptr align 1 %37, ptr align 8 %39, i64 1, i1 false)
  %40 = load ptr, ptr %7, align 8, !tbaa !12
  %41 = getelementptr inbounds i8, ptr %40, i64 1
  store ptr %41, ptr %7, align 8, !tbaa !12
  br label %42

42:                                               ; preds = %33
  %43 = load ptr, ptr %4, align 8, !tbaa !3
  %44 = getelementptr inbounds nuw %struct.H5FD_onion_header_t, ptr %43, i32 0, i32 1
  %45 = load i32, ptr %44, align 4, !tbaa !23
  %46 = and i32 %45, 255
  %47 = trunc i32 %46 to i8
  %48 = load ptr, ptr %7, align 8, !tbaa !12
  store i8 %47, ptr %48, align 1, !tbaa !22
  %49 = load ptr, ptr %7, align 8, !tbaa !12
  %50 = getelementptr inbounds nuw i8, ptr %49, i32 1
  store ptr %50, ptr %7, align 8, !tbaa !12
  %51 = load ptr, ptr %4, align 8, !tbaa !3
  %52 = getelementptr inbounds nuw %struct.H5FD_onion_header_t, ptr %51, i32 0, i32 1
  %53 = load i32, ptr %52, align 4, !tbaa !23
  %54 = lshr i32 %53, 8
  %55 = and i32 %54, 255
  %56 = trunc i32 %55 to i8
  %57 = load ptr, ptr %7, align 8, !tbaa !12
  store i8 %56, ptr %57, align 1, !tbaa !22
  %58 = load ptr, ptr %7, align 8, !tbaa !12
  %59 = getelementptr inbounds nuw i8, ptr %58, i32 1
  store ptr %59, ptr %7, align 8, !tbaa !12
  %60 = load ptr, ptr %4, align 8, !tbaa !3
  %61 = getelementptr inbounds nuw %struct.H5FD_onion_header_t, ptr %60, i32 0, i32 1
  %62 = load i32, ptr %61, align 4, !tbaa !23
  %63 = lshr i32 %62, 16
  %64 = and i32 %63, 255
  %65 = trunc i32 %64 to i8
  %66 = load ptr, ptr %7, align 8, !tbaa !12
  store i8 %65, ptr %66, align 1, !tbaa !22
  %67 = load ptr, ptr %7, align 8, !tbaa !12
  %68 = getelementptr inbounds nuw i8, ptr %67, i32 1
  store ptr %68, ptr %7, align 8, !tbaa !12
  %69 = load ptr, ptr %4, align 8, !tbaa !3
  %70 = getelementptr inbounds nuw %struct.H5FD_onion_header_t, ptr %69, i32 0, i32 1
  %71 = load i32, ptr %70, align 4, !tbaa !23
  %72 = lshr i32 %71, 24
  %73 = and i32 %72, 255
  %74 = trunc i32 %73 to i8
  %75 = load ptr, ptr %7, align 8, !tbaa !12
  store i8 %74, ptr %75, align 1, !tbaa !22
  %76 = load ptr, ptr %7, align 8, !tbaa !12
  %77 = getelementptr inbounds nuw i8, ptr %76, i32 1
  store ptr %77, ptr %7, align 8, !tbaa !12
  br label %78

78:                                               ; preds = %42
  br label %79

79:                                               ; preds = %78
  %80 = load ptr, ptr %7, align 8, !tbaa !12
  %81 = getelementptr inbounds i8, ptr %80, i64 -1
  store ptr %81, ptr %7, align 8, !tbaa !12
  br label %82

82:                                               ; preds = %79
  %83 = load ptr, ptr %4, align 8, !tbaa !3
  %84 = getelementptr inbounds nuw %struct.H5FD_onion_header_t, ptr %83, i32 0, i32 2
  %85 = load i32, ptr %84, align 8, !tbaa !24
  %86 = and i32 %85, 255
  %87 = trunc i32 %86 to i8
  %88 = load ptr, ptr %7, align 8, !tbaa !12
  store i8 %87, ptr %88, align 1, !tbaa !22
  %89 = load ptr, ptr %7, align 8, !tbaa !12
  %90 = getelementptr inbounds nuw i8, ptr %89, i32 1
  store ptr %90, ptr %7, align 8, !tbaa !12
  %91 = load ptr, ptr %4, align 8, !tbaa !3
  %92 = getelementptr inbounds nuw %struct.H5FD_onion_header_t, ptr %91, i32 0, i32 2
  %93 = load i32, ptr %92, align 8, !tbaa !24
  %94 = lshr i32 %93, 8
  %95 = and i32 %94, 255
  %96 = trunc i32 %95 to i8
  %97 = load ptr, ptr %7, align 8, !tbaa !12
  store i8 %96, ptr %97, align 1, !tbaa !22
  %98 = load ptr, ptr %7, align 8, !tbaa !12
  %99 = getelementptr inbounds nuw i8, ptr %98, i32 1
  store ptr %99, ptr %7, align 8, !tbaa !12
  %100 = load ptr, ptr %4, align 8, !tbaa !3
  %101 = getelementptr inbounds nuw %struct.H5FD_onion_header_t, ptr %100, i32 0, i32 2
  %102 = load i32, ptr %101, align 8, !tbaa !24
  %103 = lshr i32 %102, 16
  %104 = and i32 %103, 255
  %105 = trunc i32 %104 to i8
  %106 = load ptr, ptr %7, align 8, !tbaa !12
  store i8 %105, ptr %106, align 1, !tbaa !22
  %107 = load ptr, ptr %7, align 8, !tbaa !12
  %108 = getelementptr inbounds nuw i8, ptr %107, i32 1
  store ptr %108, ptr %7, align 8, !tbaa !12
  %109 = load ptr, ptr %4, align 8, !tbaa !3
  %110 = getelementptr inbounds nuw %struct.H5FD_onion_header_t, ptr %109, i32 0, i32 2
  %111 = load i32, ptr %110, align 8, !tbaa !24
  %112 = lshr i32 %111, 24
  %113 = and i32 %112, 255
  %114 = trunc i32 %113 to i8
  %115 = load ptr, ptr %7, align 8, !tbaa !12
  store i8 %114, ptr %115, align 1, !tbaa !22
  %116 = load ptr, ptr %7, align 8, !tbaa !12
  %117 = getelementptr inbounds nuw i8, ptr %116, i32 1
  store ptr %117, ptr %7, align 8, !tbaa !12
  br label %118

118:                                              ; preds = %82
  br label %119

119:                                              ; preds = %118
  br label %120

120:                                              ; preds = %119
  call void @llvm.lifetime.start.p0(i64 8, ptr %9) #7
  %121 = load ptr, ptr %4, align 8, !tbaa !3
  %122 = getelementptr inbounds nuw %struct.H5FD_onion_header_t, ptr %121, i32 0, i32 3
  %123 = load i64, ptr %122, align 8, !tbaa !25
  store i64 %123, ptr %9, align 8, !tbaa !10
  call void @llvm.lifetime.start.p0(i64 8, ptr %10) #7
  call void @llvm.lifetime.start.p0(i64 8, ptr %11) #7
  %124 = load ptr, ptr %7, align 8, !tbaa !12
  store ptr %124, ptr %11, align 8, !tbaa !12
  store i64 0, ptr %10, align 8, !tbaa !10
  br label %125

125:                                              ; preds = %134, %120
  %126 = load i64, ptr %10, align 8, !tbaa !10
  %127 = icmp ult i64 %126, 8
  br i1 %127, label %128, label %139

128:                                              ; preds = %125
  %129 = load i64, ptr %9, align 8, !tbaa !10
  %130 = and i64 %129, 255
  %131 = trunc i64 %130 to i8
  %132 = load ptr, ptr %11, align 8, !tbaa !12
  %133 = getelementptr inbounds nuw i8, ptr %132, i32 1
  store ptr %133, ptr %11, align 8, !tbaa !12
  store i8 %131, ptr %132, align 1, !tbaa !22
  br label %134

134:                                              ; preds = %128
  %135 = load i64, ptr %10, align 8, !tbaa !10
  %136 = add i64 %135, 1
  store i64 %136, ptr %10, align 8, !tbaa !10
  %137 = load i64, ptr %9, align 8, !tbaa !10
  %138 = lshr i64 %137, 8
  store i64 %138, ptr %9, align 8, !tbaa !10
  br label %125, !llvm.loop !30

139:                                              ; preds = %125
  br label %140

140:                                              ; preds = %146, %139
  %141 = load i64, ptr %10, align 8, !tbaa !10
  %142 = icmp ult i64 %141, 8
  br i1 %142, label %143, label %149

143:                                              ; preds = %140
  %144 = load ptr, ptr %11, align 8, !tbaa !12
  %145 = getelementptr inbounds nuw i8, ptr %144, i32 1
  store ptr %145, ptr %11, align 8, !tbaa !12
  store i8 0, ptr %144, align 1, !tbaa !22
  br label %146

146:                                              ; preds = %143
  %147 = load i64, ptr %10, align 8, !tbaa !10
  %148 = add i64 %147, 1
  store i64 %148, ptr %10, align 8, !tbaa !10
  br label %140, !llvm.loop !32

149:                                              ; preds = %140
  %150 = load ptr, ptr %7, align 8, !tbaa !12
  %151 = getelementptr inbounds i8, ptr %150, i64 8
  store ptr %151, ptr %7, align 8, !tbaa !12
  call void @llvm.lifetime.end.p0(i64 8, ptr %11) #7
  call void @llvm.lifetime.end.p0(i64 8, ptr %10) #7
  call void @llvm.lifetime.end.p0(i64 8, ptr %9) #7
  br label %152

152:                                              ; preds = %149
  br label %153

153:                                              ; preds = %152
  br label %154

154:                                              ; preds = %153
  call void @llvm.lifetime.start.p0(i64 8, ptr %12) #7
  %155 = load ptr, ptr %4, align 8, !tbaa !3
  %156 = getelementptr inbounds nuw %struct.H5FD_onion_header_t, ptr %155, i32 0, i32 4
  %157 = load i64, ptr %156, align 8, !tbaa !26
  store i64 %157, ptr %12, align 8, !tbaa !10
  call void @llvm.lifetime.start.p0(i64 8, ptr %13) #7
  call void @llvm.lifetime.start.p0(i64 8, ptr %14) #7
  %158 = load ptr, ptr %7, align 8, !tbaa !12
  store ptr %158, ptr %14, align 8, !tbaa !12
  store i64 0, ptr %13, align 8, !tbaa !10
  br label %159

159:                                              ; preds = %168, %154
  %160 = load i64, ptr %13, align 8, !tbaa !10
  %161 = icmp ult i64 %160, 8
  br i1 %161, label %162, label %173

162:                                              ; preds = %159
  %163 = load i64, ptr %12, align 8, !tbaa !10
  %164 = and i64 %163, 255
  %165 = trunc i64 %164 to i8
  %166 = load ptr, ptr %14, align 8, !tbaa !12
  %167 = getelementptr inbounds nuw i8, ptr %166, i32 1
  store ptr %167, ptr %14, align 8, !tbaa !12
  store i8 %165, ptr %166, align 1, !tbaa !22
  br label %168

168:                                              ; preds = %162
  %169 = load i64, ptr %13, align 8, !tbaa !10
  %170 = add i64 %169, 1
  store i64 %170, ptr %13, align 8, !tbaa !10
  %171 = load i64, ptr %12, align 8, !tbaa !10
  %172 = lshr i64 %171, 8
  store i64 %172, ptr %12, align 8, !tbaa !10
  br label %159, !llvm.loop !33

173:                                              ; preds = %159
  br label %174

174:                                              ; preds = %180, %173
  %175 = load i64, ptr %13, align 8, !tbaa !10
  %176 = icmp ult i64 %175, 8
  br i1 %176, label %177, label %183

177:                                              ; preds = %174
  %178 = load ptr, ptr %14, align 8, !tbaa !12
  %179 = getelementptr inbounds nuw i8, ptr %178, i32 1
  store ptr %179, ptr %14, align 8, !tbaa !12
  store i8 0, ptr %178, align 1, !tbaa !22
  br label %180

180:                                              ; preds = %177
  %181 = load i64, ptr %13, align 8, !tbaa !10
  %182 = add i64 %181, 1
  store i64 %182, ptr %13, align 8, !tbaa !10
  br label %174, !llvm.loop !34

183:                                              ; preds = %174
  %184 = load ptr, ptr %7, align 8, !tbaa !12
  %185 = getelementptr inbounds i8, ptr %184, i64 8
  store ptr %185, ptr %7, align 8, !tbaa !12
  call void @llvm.lifetime.end.p0(i64 8, ptr %14) #7
  call void @llvm.lifetime.end.p0(i64 8, ptr %13) #7
  call void @llvm.lifetime.end.p0(i64 8, ptr %12) #7
  br label %186

186:                                              ; preds = %183
  br label %187

187:                                              ; preds = %186
  br label %188

188:                                              ; preds = %187
  call void @llvm.lifetime.start.p0(i64 8, ptr %15) #7
  %189 = load ptr, ptr %4, align 8, !tbaa !3
  %190 = getelementptr inbounds nuw %struct.H5FD_onion_header_t, ptr %189, i32 0, i32 5
  %191 = load i64, ptr %190, align 8, !tbaa !27
  store i64 %191, ptr %15, align 8, !tbaa !10
  call void @llvm.lifetime.start.p0(i64 8, ptr %16) #7
  call void @llvm.lifetime.start.p0(i64 8, ptr %17) #7
  %192 = load ptr, ptr %7, align 8, !tbaa !12
  store ptr %192, ptr %17, align 8, !tbaa !12
  store i64 0, ptr %16, align 8, !tbaa !10
  br label %193

193:                                              ; preds = %202, %188
  %194 = load i64, ptr %16, align 8, !tbaa !10
  %195 = icmp ult i64 %194, 8
  br i1 %195, label %196, label %207

196:                                              ; preds = %193
  %197 = load i64, ptr %15, align 8, !tbaa !10
  %198 = and i64 %197, 255
  %199 = trunc i64 %198 to i8
  %200 = load ptr, ptr %17, align 8, !tbaa !12
  %201 = getelementptr inbounds nuw i8, ptr %200, i32 1
  store ptr %201, ptr %17, align 8, !tbaa !12
  store i8 %199, ptr %200, align 1, !tbaa !22
  br label %202

202:                                              ; preds = %196
  %203 = load i64, ptr %16, align 8, !tbaa !10
  %204 = add i64 %203, 1
  store i64 %204, ptr %16, align 8, !tbaa !10
  %205 = load i64, ptr %15, align 8, !tbaa !10
  %206 = lshr i64 %205, 8
  store i64 %206, ptr %15, align 8, !tbaa !10
  br label %193, !llvm.loop !35

207:                                              ; preds = %193
  br label %208

208:                                              ; preds = %214, %207
  %209 = load i64, ptr %16, align 8, !tbaa !10
  %210 = icmp ult i64 %209, 8
  br i1 %210, label %211, label %217

211:                                              ; preds = %208
  %212 = load ptr, ptr %17, align 8, !tbaa !12
  %213 = getelementptr inbounds nuw i8, ptr %212, i32 1
  store ptr %213, ptr %17, align 8, !tbaa !12
  store i8 0, ptr %212, align 1, !tbaa !22
  br label %214

214:                                              ; preds = %211
  %215 = load i64, ptr %16, align 8, !tbaa !10
  %216 = add i64 %215, 1
  store i64 %216, ptr %16, align 8, !tbaa !10
  br label %208, !llvm.loop !36

217:                                              ; preds = %208
  %218 = load ptr, ptr %7, align 8, !tbaa !12
  %219 = getelementptr inbounds i8, ptr %218, i64 8
  store ptr %219, ptr %7, align 8, !tbaa !12
  call void @llvm.lifetime.end.p0(i64 8, ptr %17) #7
  call void @llvm.lifetime.end.p0(i64 8, ptr %16) #7
  call void @llvm.lifetime.end.p0(i64 8, ptr %15) #7
  br label %220

220:                                              ; preds = %217
  br label %221

221:                                              ; preds = %220
  %222 = load ptr, ptr %5, align 8, !tbaa !12
  %223 = load ptr, ptr %7, align 8, !tbaa !12
  %224 = load ptr, ptr %5, align 8, !tbaa !12
  %225 = ptrtoint ptr %223 to i64
  %226 = ptrtoint ptr %224 to i64
  %227 = sub i64 %225, %226
  %228 = call i32 @H5_checksum_fletcher32(ptr noundef %222, i64 noundef %227)
  %229 = load ptr, ptr %6, align 8, !tbaa !28
  store i32 %228, ptr %229, align 4, !tbaa !14
  br label %230

230:                                              ; preds = %221
  %231 = load ptr, ptr %6, align 8, !tbaa !28
  %232 = load i32, ptr %231, align 4, !tbaa !14
  %233 = and i32 %232, 255
  %234 = trunc i32 %233 to i8
  %235 = load ptr, ptr %7, align 8, !tbaa !12
  store i8 %234, ptr %235, align 1, !tbaa !22
  %236 = load ptr, ptr %7, align 8, !tbaa !12
  %237 = getelementptr inbounds nuw i8, ptr %236, i32 1
  store ptr %237, ptr %7, align 8, !tbaa !12
  %238 = load ptr, ptr %6, align 8, !tbaa !28
  %239 = load i32, ptr %238, align 4, !tbaa !14
  %240 = lshr i32 %239, 8
  %241 = and i32 %240, 255
  %242 = trunc i32 %241 to i8
  %243 = load ptr, ptr %7, align 8, !tbaa !12
  store i8 %242, ptr %243, align 1, !tbaa !22
  %244 = load ptr, ptr %7, align 8, !tbaa !12
  %245 = getelementptr inbounds nuw i8, ptr %244, i32 1
  store ptr %245, ptr %7, align 8, !tbaa !12
  %246 = load ptr, ptr %6, align 8, !tbaa !28
  %247 = load i32, ptr %246, align 4, !tbaa !14
  %248 = lshr i32 %247, 16
  %249 = and i32 %248, 255
  %250 = trunc i32 %249 to i8
  %251 = load ptr, ptr %7, align 8, !tbaa !12
  store i8 %250, ptr %251, align 1, !tbaa !22
  %252 = load ptr, ptr %7, align 8, !tbaa !12
  %253 = getelementptr inbounds nuw i8, ptr %252, i32 1
  store ptr %253, ptr %7, align 8, !tbaa !12
  %254 = load ptr, ptr %6, align 8, !tbaa !28
  %255 = load i32, ptr %254, align 4, !tbaa !14
  %256 = lshr i32 %255, 24
  %257 = and i32 %256, 255
  %258 = trunc i32 %257 to i8
  %259 = load ptr, ptr %7, align 8, !tbaa !12
  store i8 %258, ptr %259, align 1, !tbaa !22
  %260 = load ptr, ptr %7, align 8, !tbaa !12
  %261 = getelementptr inbounds nuw i8, ptr %260, i32 1
  store ptr %261, ptr %7, align 8, !tbaa !12
  br label %262

262:                                              ; preds = %230
  br label %263

263:                                              ; preds = %262
  %264 = load ptr, ptr %7, align 8, !tbaa !12
  %265 = load ptr, ptr %5, align 8, !tbaa !12
  %266 = ptrtoint ptr %264 to i64
  %267 = ptrtoint ptr %265 to i64
  %268 = sub i64 %266, %267
  store i64 %268, ptr %8, align 8, !tbaa !10
  br label %269

269:                                              ; preds = %263, %25
  %270 = load i64, ptr %8, align 8, !tbaa !10
  call void @llvm.lifetime.end.p0(i64 8, ptr %8) #7
  call void @llvm.lifetime.end.p0(i64 8, ptr %7) #7
  ret i64 %270
}