; Function Attrs: nounwind uwtable
define range(i64 0, 41) i64 @H5FD__onion_header_encode(ptr noundef readonly captures(none) %0, ptr noundef %1, ptr noundef captures(none) %2) local_unnamed_addr #0 {
  %4 = load i8, ptr @H5FD_init_g, align 1, !tbaa !3, !range !7, !noundef !8
  %5 = trunc nuw i8 %4 to i1
  %6 = load i8, ptr @H5_libterm_g, align 1, !range !7
  %7 = trunc nuw i8 %6 to i1
  %8 = xor i1 %7, true
  %9 = select i1 %5, i1 true, i1 %8
  br i1 %9, label %10, label %86, !prof !9

10:                                               ; preds = %3
  store i32 1212434511, ptr %1, align 1
  %11 = getelementptr inbounds nuw i8, ptr %1, i64 4
  %12 = load i8, ptr %0, align 8
  store i8 %12, ptr %11, align 1
  %13 = getelementptr inbounds nuw i8, ptr %1, i64 5
  %14 = getelementptr inbounds nuw i8, ptr %0, i64 4
  %15 = load i32, ptr %14, align 4, !tbaa !16
  %16 = trunc i32 %15 to i8
  store i8 %16, ptr %13, align 1, !tbaa !15
  %17 = getelementptr inbounds nuw i8, ptr %1, i64 6
  %18 = load i32, ptr %14, align 4, !tbaa !16
  %19 = lshr i32 %18, 8
  %20 = trunc i32 %19 to i8
  store i8 %20, ptr %17, align 1, !tbaa !15
  %21 = getelementptr inbounds nuw i8, ptr %1, i64 7
  %22 = load i32, ptr %14, align 4, !tbaa !16
  %23 = lshr i32 %22, 16
  %24 = trunc i32 %23 to i8
  store i8 %24, ptr %21, align 1, !tbaa !15
  %25 = getelementptr inbounds nuw i8, ptr %1, i64 8
  %26 = load i32, ptr %14, align 4, !tbaa !16
  %27 = lshr i32 %26, 24
  %28 = trunc nuw i32 %27 to i8
  store i8 %28, ptr %25, align 1, !tbaa !15
  %29 = getelementptr inbounds nuw i8, ptr %0, i64 8
  %30 = load i32, ptr %29, align 8, !tbaa !17
  %31 = trunc i32 %30 to i8
  store i8 %31, ptr %25, align 1, !tbaa !15
  %32 = getelementptr inbounds nuw i8, ptr %1, i64 9
  %33 = load i32, ptr %29, align 8, !tbaa !17
  %34 = lshr i32 %33, 8
  %35 = trunc i32 %34 to i8
  store i8 %35, ptr %32, align 1, !tbaa !15
  %36 = getelementptr inbounds nuw i8, ptr %1, i64 10
  %37 = load i32, ptr %29, align 8, !tbaa !17
  %38 = lshr i32 %37, 16
  %39 = trunc i32 %38 to i8
  store i8 %39, ptr %36, align 1, !tbaa !15
  %40 = getelementptr inbounds nuw i8, ptr %1, i64 11
  %41 = load i32, ptr %29, align 8, !tbaa !17
  %42 = lshr i32 %41, 24
  %43 = trunc nuw i32 %42 to i8
  store i8 %43, ptr %40, align 1, !tbaa !15
  %44 = getelementptr inbounds nuw i8, ptr %1, i64 12
  %45 = getelementptr inbounds nuw i8, ptr %0, i64 16
  %46 = load i64, ptr %45, align 8, !tbaa !18
  br label %47

47:                                               ; preds = %10, %47
  %.09098 = phi ptr [ %44, %10 ], [ %49, %47 ]
  %.09297 = phi i64 [ 0, %10 ], [ %50, %47 ]
  %.09496 = phi i64 [ %46, %10 ], [ %51, %47 ]
  %48 = trunc i64 %.09496 to i8
  %49 = getelementptr inbounds nuw i8, ptr %.09098, i64 1
  store i8 %48, ptr %.09098, align 1, !tbaa !15
  %50 = add nuw nsw i64 %.09297, 1
  %51 = lshr i64 %.09496, 8
  %exitcond.not = icmp eq i64 %50, 8
  br i1 %exitcond.not, label %52, label %47, !llvm.loop !22

52:                                               ; preds = %47
  %53 = getelementptr inbounds nuw i8, ptr %1, i64 20
  %54 = getelementptr inbounds nuw i8, ptr %0, i64 24
  %55 = load i64, ptr %54, align 8, !tbaa !19
  br label %56

56:                                               ; preds = %52, %56
  %.085101 = phi ptr [ %53, %52 ], [ %58, %56 ]
  %.087100 = phi i64 [ 0, %52 ], [ %59, %56 ]
  %.08999 = phi i64 [ %55, %52 ], [ %60, %56 ]
  %57 = trunc i64 %.08999 to i8
  %58 = getelementptr inbounds nuw i8, ptr %.085101, i64 1
  store i8 %57, ptr %.085101, align 1, !tbaa !15
  %59 = add nuw nsw i64 %.087100, 1
  %60 = lshr i64 %.08999, 8
  %exitcond105.not = icmp eq i64 %59, 8
  br i1 %exitcond105.not, label %61, label %56, !llvm.loop !24

61:                                               ; preds = %56
  %62 = getelementptr inbounds nuw i8, ptr %1, i64 28
  %63 = getelementptr inbounds nuw i8, ptr %0, i64 32
  %64 = load i64, ptr %63, align 8, !tbaa !20
  br label %65

65:                                               ; preds = %61, %65
  %.0104 = phi ptr [ %62, %61 ], [ %67, %65 ]
  %.082103 = phi i64 [ 0, %61 ], [ %68, %65 ]
  %.084102 = phi i64 [ %64, %61 ], [ %69, %65 ]
  %66 = trunc i64 %.084102 to i8
  %67 = getelementptr inbounds nuw i8, ptr %.0104, i64 1
  store i8 %66, ptr %.0104, align 1, !tbaa !15
  %68 = add nuw nsw i64 %.082103, 1
  %69 = lshr i64 %.084102, 8
  %exitcond106.not = icmp eq i64 %68, 8
  br i1 %exitcond106.not, label %70, label %65, !llvm.loop !25

70:                                               ; preds = %65
  %71 = getelementptr inbounds nuw i8, ptr %1, i64 36
  %72 = tail call i32 @H5_checksum_fletcher32(ptr noundef nonnull %1, i64 noundef 36) #5
  store i32 %72, ptr %2, align 4, !tbaa !21
  %73 = trunc i32 %72 to i8
  store i8 %73, ptr %71, align 1, !tbaa !15
  %74 = getelementptr inbounds nuw i8, ptr %1, i64 37
  %75 = load i32, ptr %2, align 4, !tbaa !21
  %76 = lshr i32 %75, 8
  %77 = trunc i32 %76 to i8
  store i8 %77, ptr %74, align 1, !tbaa !15
  %78 = getelementptr inbounds nuw i8, ptr %1, i64 38
  %79 = load i32, ptr %2, align 4, !tbaa !21
  %80 = lshr i32 %79, 16
  %81 = trunc i32 %80 to i8
  store i8 %81, ptr %78, align 1, !tbaa !15
  %82 = getelementptr inbounds nuw i8, ptr %1, i64 39
  %83 = load i32, ptr %2, align 4, !tbaa !21
  %84 = lshr i32 %83, 24
  %85 = trunc nuw i32 %84 to i8
  store i8 %85, ptr %82, align 1, !tbaa !15
  br label %86

86:                                               ; preds = %70, %3
  %.095 = phi i64 [ 40, %70 ], [ 0, %3 ]
  ret i64 %.095
}